; ModuleID = '5/328.c'
source_filename = "5/328.c"
target datalayout = "e-m:e-p270:32:32-p271:32:32-p272:64:64-i64:64-f80:128-n8:16:32:64-S128"
target triple = "x86_64-pc-linux-gnu"

@.str = private unnamed_addr constant [4 x i8] c"%lf\00", align 1
@.str.1 = private unnamed_addr constant [6 x i8] c"%s %s\00", align 1
@.str.2 = private unnamed_addr constant [7 x i8] c"error\0A\00", align 1
@.str.3 = private unnamed_addr constant [5 x i8] c"yes\0A\00", align 1
@.str.4 = private unnamed_addr constant [4 x i8] c"no\0A\00", align 1

; Function Attrs: noinline nounwind uwtable
define dso_local i32 @main() #0 {
  %1 = alloca i32, align 4
  %2 = alloca double, align 8
  %3 = alloca double, align 8
  %4 = alloca i32, align 4
  %5 = alloca i32, align 4
  %6 = alloca i32, align 4
  %7 = alloca i32, align 4
  %8 = alloca [500 x i8], align 16
  %9 = alloca [500 x i8], align 16
  %10 = alloca i32, align 4
  store i32 0, i32* %1, align 4
  store i32 0, i32* %6, align 4
  store i32 0, i32* %7, align 4
  %11 = call i32 (i8*, ...) @__isoc99_scanf(i8* getelementptr inbounds ([4 x i8], [4 x i8]* @.str, i64 0, i64 0), double* %2)
  %12 = getelementptr inbounds [500 x i8], [500 x i8]* %8, i64 0, i64 0
  %13 = getelementptr inbounds [500 x i8], [500 x i8]* %9, i64 0, i64 0
  %14 = call i32 (i8*, ...) @__isoc99_scanf(i8* getelementptr inbounds ([6 x i8], [6 x i8]* @.str.1, i64 0, i64 0), i8* %12, i8* %13)
  %15 = getelementptr inbounds [500 x i8], [500 x i8]* %8, i64 0, i64 0
  %16 = call i64 @strlen(i8* %15) #3
  %17 = trunc i64 %16 to i32
  store i32 %17, i32* %4, align 4
  %18 = getelementptr inbounds [500 x i8], [500 x i8]* %9, i64 0, i64 0
  %19 = call i64 @strlen(i8* %18) #3
  %20 = trunc i64 %19 to i32
  store i32 %20, i32* %5, align 4
  store i32 0, i32* %10, align 4
  br label %21

21:                                               ; preds = %102, %0
  %22 = load i32, i32* %10, align 4
  %23 = sext i32 %22 to i64
  %24 = getelementptr inbounds [500 x i8], [500 x i8]* %8, i64 0, i64 %23
  %25 = load i8, i8* %24, align 1
  %26 = sext i8 %25 to i32
  %27 = icmp ne i32 %26, 0
  br i1 %27, label %28, label %105

28:                                               ; preds = %21
  %29 = load i32, i32* %10, align 4
  %30 = sext i32 %29 to i64
  %31 = getelementptr inbounds [500 x i8], [500 x i8]* %8, i64 0, i64 %30
  %32 = load i8, i8* %31, align 1
  %33 = sext i8 %32 to i32
  %34 = icmp eq i32 %33, 65
  br i1 %34, label %56, label %35

35:                                               ; preds = %28
  %36 = load i32, i32* %10, align 4
  %37 = sext i32 %36 to i64
  %38 = getelementptr inbounds [500 x i8], [500 x i8]* %8, i64 0, i64 %37
  %39 = load i8, i8* %38, align 1
  %40 = sext i8 %39 to i32
  %41 = icmp eq i32 %40, 71
  br i1 %41, label %56, label %42

42:                                               ; preds = %35
  %43 = load i32, i32* %10, align 4
  %44 = sext i32 %43 to i64
  %45 = getelementptr inbounds [500 x i8], [500 x i8]* %8, i64 0, i64 %44
  %46 = load i8, i8* %45, align 1
  %47 = sext i8 %46 to i32
  %48 = icmp eq i32 %47, 67
  br i1 %48, label %56, label %49

49:                                               ; preds = %42
  %50 = load i32, i32* %10, align 4
  %51 = sext i32 %50 to i64
  %52 = getelementptr inbounds [500 x i8], [500 x i8]* %8, i64 0, i64 %51
  %53 = load i8, i8* %52, align 1
  %54 = sext i8 %53 to i32
  %55 = icmp eq i32 %54, 84
  br i1 %55, label %56, label %100

56:                                               ; preds = %49, %42, %35, %28
  %57 = load i32, i32* %10, align 4
  %58 = sext i32 %57 to i64
  %59 = getelementptr inbounds [500 x i8], [500 x i8]* %9, i64 0, i64 %58
  %60 = load i8, i8* %59, align 1
  %61 = sext i8 %60 to i32
  %62 = icmp eq i32 %61, 65
  br i1 %62, label %84, label %63

63:                                               ; preds = %56
  %64 = load i32, i32* %10, align 4
  %65 = sext i32 %64 to i64
  %66 = getelementptr inbounds [500 x i8], [500 x i8]* %9, i64 0, i64 %65
  %67 = load i8, i8* %66, align 1
  %68 = sext i8 %67 to i32
  %69 = icmp eq i32 %68, 71
  br i1 %69, label %84, label %70

70:                                               ; preds = %63
  %71 = load i32, i32* %10, align 4
  %72 = sext i32 %71 to i64
  %73 = getelementptr inbounds [500 x i8], [500 x i8]* %9, i64 0, i64 %72
  %74 = load i8, i8* %73, align 1
  %75 = sext i8 %74 to i32
  %76 = icmp eq i32 %75, 67
  br i1 %76, label %84, label %77

77:                                               ; preds = %70
  %78 = load i32, i32* %10, align 4
  %79 = sext i32 %78 to i64
  %80 = getelementptr inbounds [500 x i8], [500 x i8]* %9, i64 0, i64 %79
  %81 = load i8, i8* %80, align 1
  %82 = sext i8 %81 to i32
  %83 = icmp eq i32 %82, 84
  br i1 %83, label %84, label %100

84:                                               ; preds = %77, %70, %63, %56
  %85 = load i32, i32* %10, align 4
  %86 = sext i32 %85 to i64
  %87 = getelementptr inbounds [500 x i8], [500 x i8]* %8, i64 0, i64 %86
  %88 = load i8, i8* %87, align 1
  %89 = sext i8 %88 to i32
  %90 = load i32, i32* %10, align 4
  %91 = sext i32 %90 to i64
  %92 = getelementptr inbounds [500 x i8], [500 x i8]* %9, i64 0, i64 %91
  %93 = load i8, i8* %92, align 1
  %94 = sext i8 %93 to i32
  %95 = icmp eq i32 %89, %94
  br i1 %95, label %96, label %99

96:                                               ; preds = %84
  %97 = load i32, i32* %6, align 4
  %98 = add nsw i32 %97, 1
  store i32 %98, i32* %6, align 4
  br label %99

99:                                               ; preds = %96, %84
  br label %101

100:                                              ; preds = %77, %49
  store i32 1, i32* %7, align 4
  br label %101

101:                                              ; preds = %100, %99
  br label %102

102:                                              ; preds = %101
  %103 = load i32, i32* %10, align 4
  %104 = add nsw i32 %103, 1
  store i32 %104, i32* %10, align 4
  br label %21

105:                                              ; preds = %21
  %106 = load i32, i32* %7, align 4
  %107 = icmp eq i32 %106, 1
  br i1 %107, label %112, label %108

108:                                              ; preds = %105
  %109 = load i32, i32* %4, align 4
  %110 = load i32, i32* %5, align 4
  %111 = icmp ne i32 %109, %110
  br i1 %111, label %112, label %114

112:                                              ; preds = %108, %105
  %113 = call i32 (i8*, ...) @printf(i8* getelementptr inbounds ([7 x i8], [7 x i8]* @.str.2, i64 0, i64 0))
  br label %129

114:                                              ; preds = %108
  %115 = load i32, i32* %6, align 4
  %116 = sitofp i32 %115 to double
  %117 = fmul double %116, 1.000000e+00
  %118 = load i32, i32* %4, align 4
  %119 = sitofp i32 %118 to double
  %120 = fdiv double %117, %119
  store double %120, double* %3, align 8
  %121 = load double, double* %2, align 8
  %122 = load double, double* %3, align 8
  %123 = fcmp olt double %121, %122
  br i1 %123, label %124, label %126

124:                                              ; preds = %114
  %125 = call i32 (i8*, ...) @printf(i8* getelementptr inbounds ([5 x i8], [5 x i8]* @.str.3, i64 0, i64 0))
  br label %128

126:                                              ; preds = %114
  %127 = call i32 (i8*, ...) @printf(i8* getelementptr inbounds ([4 x i8], [4 x i8]* @.str.4, i64 0, i64 0))
  br label %128

128:                                              ; preds = %126, %124
  br label %129

129:                                              ; preds = %128, %112
  ret i32 0
}

declare dso_local i32 @__isoc99_scanf(i8*, ...) #1

; Function Attrs: nounwind readonly
declare dso_local i64 @strlen(i8*) #2

declare dso_local i32 @printf(i8*, ...) #1


!llvm.module.flags = !{!0}
!llvm.ident = !{!1}

!0 = !{i32 1, !"wchar_size", i32 4}
!1 = !{!"clang version 10.0.0-4ubuntu1 "}
