; ModuleID = 'source-C-CXX/4/328.c'
source_filename = "source-C-CXX/4/328.c"
target datalayout = "e-m:e-p270:32:32-p271:32:32-p272:64:64-i64:64-f80:128-n8:16:32:64-S128"
target triple = "x86_64-pc-linux-gnu"

@.str = private unnamed_addr constant [4 x i8] c"%lf\00", align 1
@.str.1 = private unnamed_addr constant [6 x i8] c"%s %s\00", align 1
@str = private unnamed_addr constant [3 x i8] c"no\00", align 1
@str.5 = private unnamed_addr constant [4 x i8] c"yes\00", align 1
@str.6 = private unnamed_addr constant [6 x i8] c"error\00", align 1

; Function Attrs: nofree nounwind sspstrong uwtable
define dso_local i32 @main() local_unnamed_addr #0 {
  %1 = alloca double, align 8
  %2 = alloca [500 x i8], align 16
  %3 = alloca [500 x i8], align 16
  %4 = bitcast double* %1 to i8*
  call void @llvm.lifetime.start.p0i8(i64 8, i8* nonnull %4) #5
  %5 = getelementptr inbounds [500 x i8], [500 x i8]* %2, i64 0, i64 0
  call void @llvm.lifetime.start.p0i8(i64 500, i8* nonnull %5) #5
  %6 = getelementptr inbounds [500 x i8], [500 x i8]* %3, i64 0, i64 0
  call void @llvm.lifetime.start.p0i8(i64 500, i8* nonnull %6) #5
  %7 = call i32 (i8*, ...) @__isoc99_scanf(i8* getelementptr inbounds ([4 x i8], [4 x i8]* @.str, i64 0, i64 0), double* nonnull %1)
  %8 = call i32 (i8*, ...) @__isoc99_scanf(i8* getelementptr inbounds ([6 x i8], [6 x i8]* @.str.1, i64 0, i64 0), i8* nonnull %5, i8* nonnull %6)
  %9 = call i64 @strlen(i8* noundef nonnull %5) #6
  %10 = call i64 @strlen(i8* noundef nonnull %6) #6
  br label %11

11:                                               ; preds = %30, %0
  %12 = phi i64 [ %33, %30 ], [ 0, %0 ]
  %13 = phi i32 [ %31, %30 ], [ 0, %0 ]
  %14 = phi i32 [ %32, %30 ], [ 0, %0 ]
  %15 = getelementptr inbounds [500 x i8], [500 x i8]* %2, i64 0, i64 %12
  %16 = load i8, i8* %15, align 1, !tbaa !5
  switch i8 %16, label %30 [
    i8 0, label %17
    i8 65, label %23
    i8 71, label %23
    i8 67, label %23
    i8 84, label %23
  ]

17:                                               ; preds = %11
  %18 = trunc i64 %9 to i32
  %19 = trunc i64 %10 to i32
  %20 = icmp ne i32 %14, 1
  %21 = icmp eq i32 %18, %19
  %22 = select i1 %20, i1 %21, i1 false
  br i1 %22, label %34, label %41

23:                                               ; preds = %11, %11, %11, %11
  %24 = getelementptr inbounds [500 x i8], [500 x i8]* %3, i64 0, i64 %12
  %25 = load i8, i8* %24, align 1, !tbaa !5
  switch i8 %25, label %30 [
    i8 65, label %26
    i8 71, label %26
    i8 67, label %26
    i8 84, label %26
  ]

26:                                               ; preds = %23, %23, %23, %23
  %27 = icmp eq i8 %16, %25
  %28 = zext i1 %27 to i32
  %29 = add nsw i32 %13, %28
  br label %30

30:                                               ; preds = %26, %11, %23
  %31 = phi i32 [ %29, %26 ], [ %13, %23 ], [ %13, %11 ]
  %32 = phi i32 [ %14, %26 ], [ 1, %23 ], [ 1, %11 ]
  %33 = add nuw i64 %12, 1
  br label %11, !llvm.loop !8

34:                                               ; preds = %17
  %35 = sitofp i32 %13 to double
  %36 = sitofp i32 %18 to double
  %37 = fdiv double %35, %36
  %38 = load double, double* %1, align 8, !tbaa !10
  %39 = fcmp olt double %38, %37
  %40 = select i1 %39, i8* getelementptr inbounds ([4 x i8], [4 x i8]* @str.5, i64 0, i64 0), i8* getelementptr inbounds ([3 x i8], [3 x i8]* @str, i64 0, i64 0)
  br label %41

41:                                               ; preds = %34, %17
  %42 = phi i8* [ getelementptr inbounds ([6 x i8], [6 x i8]* @str.6, i64 0, i64 0), %17 ], [ %40, %34 ]
  %43 = call i32 @puts(i8* nonnull dereferenceable(1) %42)
  call void @llvm.lifetime.end.p0i8(i64 500, i8* nonnull %6) #5
  call void @llvm.lifetime.end.p0i8(i64 500, i8* nonnull %5) #5
  call void @llvm.lifetime.end.p0i8(i64 8, i8* nonnull %4) #5
  ret i32 0
}

; Function Attrs: argmemonly mustprogress nofree nosync nounwind willreturn
declare void @llvm.lifetime.start.p0i8(i64 immarg, i8* nocapture) #1

; Function Attrs: nofree nounwind
declare noundef i32 @__isoc99_scanf(i8* nocapture noundef readonly, ...) local_unnamed_addr #2

; Function Attrs: argmemonly mustprogress nofree nounwind readonly willreturn
declare i64 @strlen(i8* nocapture) local_unnamed_addr #3

; Function Attrs: argmemonly mustprogress nofree nosync nounwind willreturn
declare void @llvm.lifetime.end.p0i8(i64 immarg, i8* nocapture) #1

; Function Attrs: nofree nounwind
declare noundef i32 @puts(i8* nocapture noundef readonly) local_unnamed_addr #4


!llvm.module.flags = !{!0, !1, !2, !3}
!llvm.ident = !{!4}

!0 = !{i32 1, !"wchar_size", i32 4}
!1 = !{i32 7, !"PIC Level", i32 2}
!2 = !{i32 7, !"PIE Level", i32 2}
!3 = !{i32 7, !"uwtable", i32 1}
!4 = !{!"clang version 13.0.0"}
!5 = !{!6, !6, i64 0}
!6 = !{!"omnipotent char", !7, i64 0}
!7 = !{!"Simple C/C++ TBAA"}
!8 = distinct !{!8, !9}
!9 = !{!"llvm.loop.mustprogress"}
!10 = !{!11, !11, i64 0}
!11 = !{!"double", !6, i64 0}
